; Function Attrs: nounwind uwtable
define ptr @l_Function_uncurry___rarg(ptr noundef %0, ptr noundef %1) #0 {
  %3 = getelementptr inbounds nuw i8, ptr %1, i64 8
  %4 = load ptr, ptr %3, align 8, !tbaa !9
  %5 = ptrtoint ptr %4 to i64
  %6 = and i64 %5, 1
  %.not = icmp eq i64 %6, 0
  br i1 %.not, label %7, label %lean_inc.exit

7:                                                ; preds = %2
  %.val.i = load i32, ptr %4, align 4, !tbaa !4
  %8 = icmp sgt i32 %.val.i, 0
  br i1 %8, label %9, label %11, !prof !13

9:                                                ; preds = %7
  %10 = add nuw i32 %.val.i, 1
  store i32 %10, ptr %4, align 4, !tbaa !4
  br label %lean_inc.exit

11:                                               ; preds = %7
  %.not.i10 = icmp eq i32 %.val.i, 0
  br i1 %.not.i10, label %lean_inc.exit, label %12

12:                                               ; preds = %11
  tail call void @lean_inc_ref_cold(ptr noundef nonnull %4) #3
  br label %lean_inc.exit

lean_inc.exit:                                    ; preds = %12, %11, %9, %2
  %13 = getelementptr inbounds nuw i8, ptr %1, i64 16
  %14 = load ptr, ptr %13, align 8, !tbaa !9
  %15 = ptrtoint ptr %14 to i64
  %16 = and i64 %15, 1
  %.not14 = icmp eq i64 %16, 0
  br i1 %.not14, label %17, label %lean_inc.exit9

17:                                               ; preds = %lean_inc.exit
  %.val.i11 = load i32, ptr %14, align 4, !tbaa !4
  %18 = icmp sgt i32 %.val.i11, 0
  br i1 %18, label %19, label %21, !prof !13

19:                                               ; preds = %17
  %20 = add nuw i32 %.val.i11, 1
  store i32 %20, ptr %14, align 4, !tbaa !4
  br label %lean_inc.exit9

21:                                               ; preds = %17
  %.not.i12 = icmp eq i32 %.val.i11, 0
  br i1 %.not.i12, label %lean_inc.exit9, label %22

22:                                               ; preds = %21
  tail call void @lean_inc_ref_cold(ptr noundef nonnull %14) #3
  br label %lean_inc.exit9

lean_inc.exit9:                                   ; preds = %22, %21, %19, %lean_inc.exit
  %23 = ptrtoint ptr %1 to i64
  %24 = and i64 %23, 1
  %.not15 = icmp eq i64 %24, 0
  br i1 %.not15, label %25, label %lean_dec.exit

25:                                               ; preds = %lean_inc.exit9
  %26 = load i32, ptr %1, align 4, !tbaa !4
  %27 = icmp sgt i32 %26, 1
  br i1 %27, label %28, label %30, !prof !13

28:                                               ; preds = %25
  %29 = add nsw i32 %26, -1
  store i32 %29, ptr %1, align 4, !tbaa !4
  br label %lean_dec.exit

30:                                               ; preds = %25
  %.not.i = icmp eq i32 %26, 0
  br i1 %.not.i, label %lean_dec.exit, label %31

31:                                               ; preds = %30
  tail call void @lean_dec_ref_cold(ptr noundef nonnull %1) #3
  br label %lean_dec.exit

lean_dec.exit:                                    ; preds = %31, %30, %28, %lean_inc.exit9
  %32 = tail call ptr @lean_apply_2(ptr noundef %0, ptr noundef %4, ptr noundef %14) #3
  ret ptr %32
}